target datalayout = "e-m:e-p270:32:32-p271:32:32-p272:64:64-i64:64-i128:128-f80:128-n8:16:32:64-S128"
target triple = "x86_64-pc-linux-gnu"

; Function Attrs: nounwind willreturn memory(none) uwtable
define i64 @av_rescale_rnd(i64 noundef %0, i64 noundef %1, i64 noundef %2, i32 noundef %3) #0 {
  %5 = alloca i64, align 8
  %6 = alloca i64, align 8
  %7 = alloca i64, align 8
  %8 = alloca i64, align 8
  %9 = alloca i32, align 4
  %10 = alloca i64, align 8
  %11 = alloca i32, align 4
  %12 = alloca i64, align 8
  %13 = alloca i64, align 8
  %14 = alloca i64, align 8
  %15 = alloca i64, align 8
  %16 = alloca i64, align 8
  %17 = alloca i64, align 8
  %18 = alloca i64, align 8
  %19 = alloca i64, align 8
  %20 = alloca i32, align 4
  store i64 %0, ptr %6, align 8, !tbaa !4
  store i64 %1, ptr %7, align 8, !tbaa !4
  store i64 %2, ptr %8, align 8, !tbaa !4
  store i32 %3, ptr %9, align 4, !tbaa !8
  call void @llvm.lifetime.start.p0(i64 8, ptr %10) #11
  store i64 0, ptr %10, align 8, !tbaa !4
  %21 = load i64, ptr %8, align 8, !tbaa !4
  %22 = icmp sle i64 %21, 0
  br i1 %22, label %34, label %23

23:                                               ; preds = %4
  %24 = load i64, ptr %7, align 8, !tbaa !4
  %25 = icmp slt i64 %24, 0
  br i1 %25, label %34, label %26

26:                                               ; preds = %23
  %27 = load i32, ptr %9, align 4, !tbaa !8
  %28 = and i32 %27, -8193
  %29 = icmp ule i32 %28, 5
  br i1 %29, label %30, label %34

30:                                               ; preds = %26
  %31 = load i32, ptr %9, align 4, !tbaa !8
  %32 = and i32 %31, -8193
  %33 = icmp ne i32 %32, 4
  br i1 %33, label %35, label %34

34:                                               ; preds = %30, %26, %23, %4
  store i64 -9223372036854775808, ptr %5, align 8
  store i32 1, ptr %11, align 4
  br label %216

35:                                               ; preds = %30
  %36 = load i32, ptr %9, align 4, !tbaa !8
  %37 = and i32 %36, 8192
  %38 = icmp ne i32 %37, 0
  br i1 %38, label %39, label %50

39:                                               ; preds = %35
  %40 = load i64, ptr %6, align 8, !tbaa !4
  %41 = icmp eq i64 %40, -9223372036854775808
  br i1 %41, label %45, label %42

42:                                               ; preds = %39
  %43 = load i64, ptr %6, align 8, !tbaa !4
  %44 = icmp eq i64 %43, 9223372036854775807
  br i1 %44, label %45, label %47

45:                                               ; preds = %42, %39
  %46 = load i64, ptr %6, align 8, !tbaa !4
  store i64 %46, ptr %5, align 8
  store i32 1, ptr %11, align 4
  br label %216

47:                                               ; preds = %42
  %48 = load i32, ptr %9, align 4, !tbaa !8
  %49 = sub i32 %48, 8192
  store i32 %49, ptr %9, align 4, !tbaa !8
  br label %50

50:                                               ; preds = %47, %35
  %51 = load i64, ptr %6, align 8, !tbaa !4
  %52 = icmp slt i64 %51, 0
  br i1 %52, label %53, label %71

53:                                               ; preds = %50
  %54 = load i64, ptr %6, align 8, !tbaa !4
  %55 = icmp sgt i64 %54, -9223372036854775807
  br i1 %55, label %56, label %58

56:                                               ; preds = %53
  %57 = load i64, ptr %6, align 8, !tbaa !4
  br label %59

58:                                               ; preds = %53
  br label %59

59:                                               ; preds = %58, %56
  %60 = phi i64 [ %57, %56 ], [ -9223372036854775807, %58 ]
  %61 = sub nsw i64 0, %60
  %62 = load i64, ptr %7, align 8, !tbaa !4
  %63 = load i64, ptr %8, align 8, !tbaa !4
  %64 = load i32, ptr %9, align 4, !tbaa !8
  %65 = load i32, ptr %9, align 4, !tbaa !8
  %66 = lshr i32 %65, 1
  %67 = and i32 %66, 1
  %68 = xor i32 %64, %67
  %69 = call i64 @av_rescale_rnd(i64 noundef %61, i64 noundef %62, i64 noundef %63, i32 noundef %68) #12
  %70 = sub i64 0, %69
  store i64 %70, ptr %5, align 8
  store i32 1, ptr %11, align 4
  br label %216

71:                                               ; preds = %50
  %72 = load i32, ptr %9, align 4, !tbaa !8
  %73 = icmp eq i32 %72, 5
  br i1 %73, label %74, label %77

74:                                               ; preds = %71
  %75 = load i64, ptr %8, align 8, !tbaa !4
  %76 = sdiv i64 %75, 2
  store i64 %76, ptr %10, align 8, !tbaa !4
  br label %85

77:                                               ; preds = %71
  %78 = load i32, ptr %9, align 4, !tbaa !8
  %79 = and i32 %78, 1
  %80 = icmp ne i32 %79, 0
  br i1 %80, label %81, label %84

81:                                               ; preds = %77
  %82 = load i64, ptr %8, align 8, !tbaa !4
  %83 = sub nsw i64 %82, 1
  store i64 %83, ptr %10, align 8, !tbaa !4
  br label %84

84:                                               ; preds = %81, %77
  br label %85

85:                                               ; preds = %84, %74
  %86 = load i64, ptr %7, align 8, !tbaa !4
  %87 = icmp sle i64 %86, 2147483647
  br i1 %87, label %88, label %135

88:                                               ; preds = %85
  %89 = load i64, ptr %8, align 8, !tbaa !4
  %90 = icmp sle i64 %89, 2147483647
  br i1 %90, label %91, label %135

91:                                               ; preds = %88
  %92 = load i64, ptr %6, align 8, !tbaa !4
  %93 = icmp sle i64 %92, 2147483647
  br i1 %93, label %94, label %102

94:                                               ; preds = %91
  %95 = load i64, ptr %6, align 8, !tbaa !4
  %96 = load i64, ptr %7, align 8, !tbaa !4
  %97 = mul nsw i64 %95, %96
  %98 = load i64, ptr %10, align 8, !tbaa !4
  %99 = add nsw i64 %97, %98
  %100 = load i64, ptr %8, align 8, !tbaa !4
  %101 = sdiv i64 %99, %100
  store i64 %101, ptr %5, align 8
  store i32 1, ptr %11, align 4
  br label %216

102:                                              ; preds = %91
  call void @llvm.lifetime.start.p0(i64 8, ptr %12) #11
  %103 = load i64, ptr %6, align 8, !tbaa !4
  %104 = load i64, ptr %8, align 8, !tbaa !4
  %105 = sdiv i64 %103, %104
  store i64 %105, ptr %12, align 8, !tbaa !4
  call void @llvm.lifetime.start.p0(i64 8, ptr %13) #11
  %106 = load i64, ptr %6, align 8, !tbaa !4
  %107 = load i64, ptr %8, align 8, !tbaa !4
  %108 = srem i64 %106, %107
  %109 = load i64, ptr %7, align 8, !tbaa !4
  %110 = mul nsw i64 %108, %109
  %111 = load i64, ptr %10, align 8, !tbaa !4
  %112 = add nsw i64 %110, %111
  %113 = load i64, ptr %8, align 8, !tbaa !4
  %114 = sdiv i64 %112, %113
  store i64 %114, ptr %13, align 8, !tbaa !4
  %115 = load i64, ptr %12, align 8, !tbaa !4
  %116 = icmp sge i64 %115, 2147483647
  br i1 %116, label %117, label %128

117:                                              ; preds = %102
  %118 = load i64, ptr %7, align 8, !tbaa !4
  %119 = icmp ne i64 %118, 0
  br i1 %119, label %120, label %128

120:                                              ; preds = %117
  %121 = load i64, ptr %12, align 8, !tbaa !4
  %122 = load i64, ptr %13, align 8, !tbaa !4
  %123 = sub nsw i64 9223372036854775807, %122
  %124 = load i64, ptr %7, align 8, !tbaa !4
  %125 = sdiv i64 %123, %124
  %126 = icmp sgt i64 %121, %125
  br i1 %126, label %127, label %128

127:                                              ; preds = %120
  store i64 -9223372036854775808, ptr %5, align 8
  store i32 1, ptr %11, align 4
  br label %134

128:                                              ; preds = %120, %117, %102
  %129 = load i64, ptr %12, align 8, !tbaa !4
  %130 = load i64, ptr %7, align 8, !tbaa !4
  %131 = mul nsw i64 %129, %130
  %132 = load i64, ptr %13, align 8, !tbaa !4
  %133 = add nsw i64 %131, %132
  store i64 %133, ptr %5, align 8
  store i32 1, ptr %11, align 4
  br label %134

134:                                              ; preds = %128, %127
  call void @llvm.lifetime.end.p0(i64 8, ptr %13) #11
  call void @llvm.lifetime.end.p0(i64 8, ptr %12) #11
  br label %216

135:                                              ; preds = %88, %85
  call void @llvm.lifetime.start.p0(i64 8, ptr %14) #11
  %136 = load i64, ptr %6, align 8, !tbaa !4
  %137 = and i64 %136, 4294967295
  store i64 %137, ptr %14, align 8, !tbaa !4
  call void @llvm.lifetime.start.p0(i64 8, ptr %15) #11
  %138 = load i64, ptr %6, align 8, !tbaa !4
  %139 = ashr i64 %138, 32
  store i64 %139, ptr %15, align 8, !tbaa !4
  call void @llvm.lifetime.start.p0(i64 8, ptr %16) #11
  %140 = load i64, ptr %7, align 8, !tbaa !4
  %141 = and i64 %140, 4294967295
  store i64 %141, ptr %16, align 8, !tbaa !4
  call void @llvm.lifetime.start.p0(i64 8, ptr %17) #11
  %142 = load i64, ptr %7, align 8, !tbaa !4
  %143 = ashr i64 %142, 32
  store i64 %143, ptr %17, align 8, !tbaa !4
  call void @llvm.lifetime.start.p0(i64 8, ptr %18) #11
  %144 = load i64, ptr %14, align 8, !tbaa !4
  %145 = load i64, ptr %17, align 8, !tbaa !4
  %146 = mul i64 %144, %145
  %147 = load i64, ptr %15, align 8, !tbaa !4
  %148 = load i64, ptr %16, align 8, !tbaa !4
  %149 = mul i64 %147, %148
  %150 = add i64 %146, %149
  store i64 %150, ptr %18, align 8, !tbaa !4
  call void @llvm.lifetime.start.p0(i64 8, ptr %19) #11
  %151 = load i64, ptr %18, align 8, !tbaa !4
  %152 = shl i64 %151, 32
  store i64 %152, ptr %19, align 8, !tbaa !4
  call void @llvm.lifetime.start.p0(i64 4, ptr %20) #11
  %153 = load i64, ptr %14, align 8, !tbaa !4
  %154 = load i64, ptr %16, align 8, !tbaa !4
  %155 = mul i64 %153, %154
  %156 = load i64, ptr %19, align 8, !tbaa !4
  %157 = add i64 %155, %156
  store i64 %157, ptr %14, align 8, !tbaa !4
  %158 = load i64, ptr %15, align 8, !tbaa !4
  %159 = load i64, ptr %17, align 8, !tbaa !4
  %160 = mul i64 %158, %159
  %161 = load i64, ptr %18, align 8, !tbaa !4
  %162 = lshr i64 %161, 32
  %163 = add i64 %160, %162
  %164 = load i64, ptr %14, align 8, !tbaa !4
  %165 = load i64, ptr %19, align 8, !tbaa !4
  %166 = icmp ult i64 %164, %165
  %167 = zext i1 %166 to i32
  %168 = sext i32 %167 to i64
  %169 = add i64 %163, %168
  store i64 %169, ptr %15, align 8, !tbaa !4
  %170 = load i64, ptr %10, align 8, !tbaa !4
  %171 = load i64, ptr %14, align 8, !tbaa !4
  %172 = add i64 %171, %170
  store i64 %172, ptr %14, align 8, !tbaa !4
  %173 = load i64, ptr %14, align 8, !tbaa !4
  %174 = load i64, ptr %10, align 8, !tbaa !4
  %175 = icmp ult i64 %173, %174
  %176 = zext i1 %175 to i32
  %177 = sext i32 %176 to i64
  %178 = load i64, ptr %15, align 8, !tbaa !4
  %179 = add i64 %178, %177
  store i64 %179, ptr %15, align 8, !tbaa !4
  store i32 63, ptr %20, align 4, !tbaa !8
  br label %180

180:                                              ; preds = %206, %135
  %181 = load i32, ptr %20, align 4, !tbaa !8
  %182 = icmp sge i32 %181, 0
  br i1 %182, label %183, label %209

183:                                              ; preds = %180
  %184 = load i64, ptr %15, align 8, !tbaa !4
  %185 = load i64, ptr %14, align 8, !tbaa !4
  %186 = load i32, ptr %20, align 4, !tbaa !8
  %187 = zext i32 %186 to i64
  %188 = lshr i64 %185, %187
  %189 = and i64 %188, 1
  %190 = add i64 %184, %189
  %191 = load i64, ptr %15, align 8, !tbaa !4
  %192 = add i64 %191, %190
  store i64 %192, ptr %15, align 8, !tbaa !4
  %193 = load i64, ptr %18, align 8, !tbaa !4
  %194 = load i64, ptr %18, align 8, !tbaa !4
  %195 = add i64 %194, %193
  store i64 %195, ptr %18, align 8, !tbaa !4
  %196 = load i64, ptr %8, align 8, !tbaa !4
  %197 = load i64, ptr %15, align 8, !tbaa !4
  %198 = icmp ule i64 %196, %197
  br i1 %198, label %199, label %205

199:                                              ; preds = %183
  %200 = load i64, ptr %8, align 8, !tbaa !4
  %201 = load i64, ptr %15, align 8, !tbaa !4
  %202 = sub i64 %201, %200
  store i64 %202, ptr %15, align 8, !tbaa !4
  %203 = load i64, ptr %18, align 8, !tbaa !4
  %204 = add i64 %203, 1
  store i64 %204, ptr %18, align 8, !tbaa !4
  br label %205

205:                                              ; preds = %199, %183
  br label %206

206:                                              ; preds = %205
  %207 = load i32, ptr %20, align 4, !tbaa !8
  %208 = add nsw i32 %207, -1
  store i32 %208, ptr %20, align 4, !tbaa !8
  br label %180, !llvm.loop !15

209:                                              ; preds = %180
  %210 = load i64, ptr %18, align 8, !tbaa !4
  %211 = icmp ugt i64 %210, 9223372036854775807
  br i1 %211, label %212, label %213

212:                                              ; preds = %209
  store i64 -9223372036854775808, ptr %5, align 8
  store i32 1, ptr %11, align 4
  br label %215

213:                                              ; preds = %209
  %214 = load i64, ptr %18, align 8, !tbaa !4
  store i64 %214, ptr %5, align 8
  store i32 1, ptr %11, align 4
  br label %215

215:                                              ; preds = %213, %212
  call void @llvm.lifetime.end.p0(i64 4, ptr %20) #11
  call void @llvm.lifetime.end.p0(i64 8, ptr %19) #11
  call void @llvm.lifetime.end.p0(i64 8, ptr %18) #11
  call void @llvm.lifetime.end.p0(i64 8, ptr %17) #11
  call void @llvm.lifetime.end.p0(i64 8, ptr %16) #11
  call void @llvm.lifetime.end.p0(i64 8, ptr %15) #11
  call void @llvm.lifetime.end.p0(i64 8, ptr %14) #11
  br label %216

216:                                              ; preds = %215, %134, %94, %59, %45, %34
  call void @llvm.lifetime.end.p0(i64 8, ptr %10) #11
  %217 = load i64, ptr %5, align 8
  ret i64 %217
}