; Function Attrs: mustprogress nofree nosync nounwind willreturn memory(none) uwtable
define i64 @av_rescale_rnd(i64 noundef %0, i64 noundef %1, i64 noundef %2, i32 noundef %3) local_unnamed_addr #2 {
  %5 = icmp slt i64 %2, 1
  %6 = icmp slt i64 %1, 0
  %or.cond = or i1 %6, %5
  br i1 %or.cond, label %common.ret111, label %7

7:                                                ; preds = %4
  %8 = and i32 %3, -8193
  %9 = icmp ugt i32 %8, 5
  %.not = icmp eq i32 %8, 4
  %or.cond105 = or i1 %9, %.not
  br i1 %or.cond105, label %common.ret111, label %10

10:                                               ; preds = %7
  %11 = and i32 %3, 8192
  %.not102 = icmp eq i32 %11, 0
  br i1 %.not102, label %16, label %12

12:                                               ; preds = %10
  %13 = add i64 %0, -9223372036854775807
  %or.cond3 = icmp ult i64 %13, 2
  br i1 %or.cond3, label %common.ret111, label %14

14:                                               ; preds = %12
  %15 = add nsw i32 %3, -8192
  br label %16

16:                                               ; preds = %14, %10
  %.090 = phi i32 [ %15, %14 ], [ %3, %10 ]
  %17 = icmp slt i64 %0, 0
  br i1 %17, label %18, label %26

common.ret111:                                    ; preds = %53, %49, %12, %4, %7, %83, %37, %18
  %common.ret111.op = phi i64 [ %25, %18 ], [ %40, %37 ], [ %..088, %83 ], [ -9223372036854775808, %7 ], [ -9223372036854775808, %4 ], [ %0, %12 ], [ %55, %53 ], [ -9223372036854775808, %49 ]
  ret i64 %common.ret111.op

18:                                               ; preds = %16
  %19 = tail call i64 @llvm.umax.i64(i64 %0, i64 -9223372036854775807)
  %20 = sub nsw i64 0, %19
  %21 = lshr i32 %.090, 1
  %22 = and i32 %21, 1
  %23 = xor i32 %22, %.090
  %24 = tail call i64 @av_rescale_rnd(i64 noundef %20, i64 noundef %1, i64 noundef %2, i32 noundef %23) #10
  %25 = sub i64 0, %24
  br label %common.ret111

26:                                               ; preds = %16
  %27 = icmp eq i32 %.090, 5
  br i1 %27, label %28, label %30

28:                                               ; preds = %26
  %29 = lshr i64 %2, 1
  br label %33

30:                                               ; preds = %26
  %31 = and i32 %.090, 1
  %.not103 = icmp eq i32 %31, 0
  %32 = add nsw i64 %2, -1
  %spec.select = select i1 %.not103, i64 0, i64 %32
  br label %33

33:                                               ; preds = %30, %28
  %.091 = phi i64 [ %29, %28 ], [ %spec.select, %30 ]
  %34 = or i64 %2, %1
  %or.cond5 = icmp samesign ult i64 %34, 2147483648
  br i1 %or.cond5, label %35, label %56

35:                                               ; preds = %33
  %36 = icmp samesign ult i64 %0, 2147483648
  br i1 %36, label %37, label %41

37:                                               ; preds = %35
  %38 = mul nuw nsw i64 %1, %0
  %39 = add nuw nsw i64 %.091, %38
  %40 = udiv i64 %39, %2
  br label %common.ret111

41:                                               ; preds = %35
  %42 = udiv i64 %0, %2
  %43 = urem i64 %0, %2
  %44 = mul nuw nsw i64 %43, %1
  %45 = add nuw nsw i64 %44, %.091
  %46 = udiv i64 %45, %2
  %47 = icmp samesign ugt i64 %42, 2147483646
  %48 = icmp ne i64 %1, 0
  %or.cond7 = and i1 %48, %47
  br i1 %or.cond7, label %49, label %53

49:                                               ; preds = %41
  %50 = sub nuw nsw i64 9223372036854775807, %46
  %51 = udiv i64 %50, %1
  %52 = icmp samesign ugt i64 %42, %51
  br i1 %52, label %common.ret111, label %53

53:                                               ; preds = %49, %41
  %54 = mul nuw nsw i64 %42, %1
  %55 = add nuw nsw i64 %46, %54
  br label %common.ret111

56:                                               ; preds = %33
  %57 = and i64 %0, 4294967295
  %58 = lshr i64 %0, 32
  %59 = and i64 %1, 4294967295
  %60 = lshr i64 %1, 32
  %61 = mul nuw nsw i64 %60, %57
  %62 = mul nuw nsw i64 %59, %58
  %63 = add nuw i64 %61, %62
  %64 = shl i64 %63, 32
  %65 = mul i64 %1, %0
  %66 = mul nuw nsw i64 %60, %58
  %67 = lshr i64 %63, 32
  %68 = add nuw nsw i64 %67, %66
  %69 = icmp ult i64 %65, %64
  %70 = zext i1 %69 to i64
  %71 = add nuw nsw i64 %68, %70
  %72 = add i64 %.091, %65
  %73 = icmp ult i64 %72, %.091
  %74 = zext i1 %73 to i64
  %75 = add nuw nsw i64 %71, %74
  br label %76

76:                                               ; preds = %56, %76
  %indvars.iv = phi i64 [ 63, %56 ], [ %indvars.iv.next, %76 ]
  %.088107 = phi i64 [ %63, %56 ], [ %.189, %76 ]
  %.092106 = phi i64 [ %75, %56 ], [ %.193, %76 ]
  %77 = lshr i64 %72, %indvars.iv
  %78 = and i64 %77, 1
  %reass.add = shl i64 %.092106, 1
  %79 = or disjoint i64 %78, %reass.add
  %80 = shl i64 %.088107, 1
  %.not104 = icmp ule i64 %2, %79
  %81 = select i1 %.not104, i64 %2, i64 0
  %.193 = sub nuw i64 %79, %81
  %82 = zext i1 %.not104 to i64
  %.189 = or disjoint i64 %80, %82
  %indvars.iv.next = add nsw i64 %indvars.iv, -1
  %.not110 = icmp eq i64 %indvars.iv, 0
  br i1 %.not110, label %83, label %76, !llvm.loop !6

83:                                               ; preds = %76
  %84 = icmp slt i64 %80, 0
  %..088 = select i1 %84, i64 -9223372036854775808, i64 %.189
  br label %common.ret111
}